; ModuleID = '12/122.c'
source_filename = "12/122.c"
target datalayout = "e-m:e-p270:32:32-p271:32:32-p272:64:64-i64:64-f80:128-n8:16:32:64-S128"
target triple = "x86_64-pc-linux-gnu"

@.str = private unnamed_addr constant [3 x i8] c"%f\00", align 1
@.str.1 = private unnamed_addr constant [4 x i8] c"%d\0A\00", align 1

; Function Attrs: noinline nounwind uwtable
define dso_local i32 @main(i32 %0, i8** %1) #0 {
  %3 = alloca i32, align 4
  %4 = alloca i32, align 4
  %5 = alloca i8**, align 8
  %6 = alloca [100 x [999 x float]], align 16
  %7 = alloca i32, align 4
  %8 = alloca i32, align 4
  %9 = alloca i32, align 4
  %10 = alloca i32, align 4
  %11 = alloca i32, align 4
  store i32 0, i32* %3, align 4
  store i32 %0, i32* %4, align 4
  store i8** %1, i8*** %5, align 8
  store i32 0, i32* %8, align 4
  br label %12

12:                                               ; preds = %86, %2
  store i32 0, i32* %7, align 4
  br label %13

13:                                               ; preds = %31, %12
  %14 = load i32, i32* %8, align 4
  %15 = sext i32 %14 to i64
  %16 = getelementptr inbounds [100 x [999 x float]], [100 x [999 x float]]* %6, i64 0, i64 %15
  %17 = load i32, i32* %7, align 4
  %18 = sext i32 %17 to i64
  %19 = getelementptr inbounds [999 x float], [999 x float]* %16, i64 0, i64 %18
  %20 = call i32 (i8*, ...) @__isoc99_scanf(i8* getelementptr inbounds ([3 x i8], [3 x i8]* @.str, i64 0, i64 0), float* %19)
  %21 = load i32, i32* %8, align 4
  %22 = sext i32 %21 to i64
  %23 = getelementptr inbounds [100 x [999 x float]], [100 x [999 x float]]* %6, i64 0, i64 %22
  %24 = load i32, i32* %7, align 4
  %25 = sext i32 %24 to i64
  %26 = getelementptr inbounds [999 x float], [999 x float]* %23, i64 0, i64 %25
  %27 = load float, float* %26, align 4
  %28 = fcmp oeq float %27, 0.000000e+00
  br i1 %28, label %29, label %30

29:                                               ; preds = %13
  br label %34

30:                                               ; preds = %13
  br label %31

31:                                               ; preds = %30
  %32 = load i32, i32* %7, align 4
  %33 = add nsw i32 %32, 1
  store i32 %33, i32* %7, align 4
  br label %13

34:                                               ; preds = %29
  %35 = load i32, i32* %8, align 4
  %36 = sext i32 %35 to i64
  %37 = getelementptr inbounds [100 x [999 x float]], [100 x [999 x float]]* %6, i64 0, i64 %36
  %38 = getelementptr inbounds [999 x float], [999 x float]* %37, i64 0, i64 0
  %39 = load float, float* %38, align 4
  %40 = fcmp oeq float %39, -1.000000e+00
  br i1 %40, label %41, label %42

41:                                               ; preds = %34
  br label %89

42:                                               ; preds = %34
  store i32 0, i32* %9, align 4
  store i32 0, i32* %10, align 4
  br label %43

43:                                               ; preds = %79, %42
  %44 = load i32, i32* %10, align 4
  %45 = load i32, i32* %7, align 4
  %46 = icmp slt i32 %44, %45
  br i1 %46, label %47, label %82

47:                                               ; preds = %43
  store i32 0, i32* %11, align 4
  br label %48

48:                                               ; preds = %75, %47
  %49 = load i32, i32* %11, align 4
  %50 = load i32, i32* %7, align 4
  %51 = icmp slt i32 %49, %50
  br i1 %51, label %52, label %78

52:                                               ; preds = %48
  %53 = load i32, i32* %8, align 4
  %54 = sext i32 %53 to i64
  %55 = getelementptr inbounds [100 x [999 x float]], [100 x [999 x float]]* %6, i64 0, i64 %54
  %56 = load i32, i32* %10, align 4
  %57 = sext i32 %56 to i64
  %58 = getelementptr inbounds [999 x float], [999 x float]* %55, i64 0, i64 %57
  %59 = load float, float* %58, align 4
  %60 = load i32, i32* %8, align 4
  %61 = sext i32 %60 to i64
  %62 = getelementptr inbounds [100 x [999 x float]], [100 x [999 x float]]* %6, i64 0, i64 %61
  %63 = load i32, i32* %11, align 4
  %64 = sext i32 %63 to i64
  %65 = getelementptr inbounds [999 x float], [999 x float]* %62, i64 0, i64 %64
  %66 = load float, float* %65, align 4
  %67 = fdiv float %59, %66
  %68 = fcmp oeq float %67, 2.000000e+00
  br i1 %68, label %69, label %72

69:                                               ; preds = %52
  %70 = load i32, i32* %9, align 4
  %71 = add nsw i32 %70, 1
  store i32 %71, i32* %9, align 4
  br label %74

72:                                               ; preds = %52
  %73 = load i32, i32* %9, align 4
  store i32 %73, i32* %9, align 4
  br label %74

74:                                               ; preds = %72, %69
  br label %75

75:                                               ; preds = %74
  %76 = load i32, i32* %11, align 4
  %77 = add nsw i32 %76, 1
  store i32 %77, i32* %11, align 4
  br label %48

78:                                               ; preds = %48
  br label %79

79:                                               ; preds = %78
  %80 = load i32, i32* %10, align 4
  %81 = add nsw i32 %80, 1
  store i32 %81, i32* %10, align 4
  br label %43

82:                                               ; preds = %43
  %83 = load i32, i32* %9, align 4
  %84 = call i32 (i8*, ...) @printf(i8* getelementptr inbounds ([4 x i8], [4 x i8]* @.str.1, i64 0, i64 0), i32 %83)
  br label %85

85:                                               ; preds = %82
  br label %86

86:                                               ; preds = %85
  %87 = load i32, i32* %8, align 4
  %88 = add nsw i32 %87, 1
  store i32 %88, i32* %8, align 4
  br label %12

89:                                               ; preds = %41
  ret i32 0
}

declare dso_local i32 @__isoc99_scanf(i8*, ...) #1

declare dso_local i32 @printf(i8*, ...) #1


!llvm.module.flags = !{!0}
!llvm.ident = !{!1}

!0 = !{i32 1, !"wchar_size", i32 4}
!1 = !{!"clang version 10.0.0-4ubuntu1 "}
